; Function Attrs: nounwind uwtable
define void @b2WheelJoint_EnableMotor(i64 %0, i1 noundef zeroext %1) local_unnamed_addr #0 {
  %3 = tail call ptr @b2GetJointSimCheckType(i64 %0, i32 noundef 7) #10
  %4 = getelementptr inbounds nuw i8, ptr %3, i64 165
  %5 = load i8, ptr %4, align 1, !tbaa !3, !range !6, !noundef !7
  %6 = zext i1 %1 to i8
  %.not = icmp eq i8 %5, %6
  br i1 %.not, label %9, label %7

7:                                                ; preds = %2
  %8 = getelementptr inbounds nuw i8, ptr %3, i64 60
  store float 0.000000e+00, ptr %8, align 4, !tbaa !3
  store i8 %6, ptr %4, align 1, !tbaa !3
  br label %9

9:                                                ; preds = %7, %2
  ret void
}